target datalayout = "e-m:e-p270:32:32-p271:32:32-p272:64:64-i64:64-i128:128-f80:128-n8:16:32:64-S128"
target triple = "x86_64-pc-linux-gnu"

%struct.ossl_param_st = type { ptr, i32, ptr, i64, i64 }
%struct.anon = type { i64, [20 x i8] }

@.str.17 = private unnamed_addr constant [34 x i8] c"../openssl/test/params_api_test.c\00", align 1
@.str.18 = private unnamed_addr constant [29 x i8] c"test_param_type_null(&param)\00", align 1
@.str.19 = private unnamed_addr constant [2 x i8] c"1\00", align 1
@.str.22 = private unnamed_addr constant [20 x i8] c"raw_values[n].value\00", align 1
@.str.31 = private unnamed_addr constant [4 x i8] c"buf\00", align 1
@__const.test_param_bignum.param = private unnamed_addr constant { ptr, i32, [4 x i8], ptr, i64, i64 } { ptr @.str.54, i32 2, [4 x i8] zeroinitializer, ptr null, i64 0, i64 -1 }, align 8
@.str.55 = private unnamed_addr constant [53 x i8] c"b = BN_lebin2bn(raw_values[n].value, (int)len, NULL)\00", align 1
@.str.56 = private unnamed_addr constant [29 x i8] c"OSSL_PARAM_set_BN(&param, b)\00", align 1
@.str.57 = private unnamed_addr constant [30 x i8] c"OSSL_PARAM_get_BN(&param, &c)\00", align 1
@.str.58 = private unnamed_addr constant [2 x i8] c"b\00", align 1
@.str.59 = private unnamed_addr constant [2 x i8] c"c\00", align 1

; Function Attrs: nounwind uwtable
define internal void @le_copy(ptr noundef %0, i64 noundef %1, ptr noundef %2, i64 noundef %3) #0 {
  %5 = alloca ptr, align 8
  %6 = alloca i64, align 8
  %7 = alloca ptr, align 8
  %8 = alloca i64, align 8
  %9 = alloca i32, align 4
  store ptr %0, ptr %5, align 8, !tbaa !29
  store i64 %1, ptr %6, align 8, !tbaa !11
  store ptr %2, ptr %7, align 8, !tbaa !27
  store i64 %3, ptr %8, align 8, !tbaa !11
  call void @llvm.lifetime.start.p0(i64 4, ptr %9) #5
  store i32 1, ptr %9, align 4, !tbaa !4
  %10 = load ptr, ptr %5, align 8, !tbaa !29
  %11 = load ptr, ptr %7, align 8, !tbaa !27
  %12 = load i64, ptr %6, align 8, !tbaa !11
  call void @llvm.memcpy.p0.p0.i64(ptr align 1 %10, ptr align 1 %11, i64 %12, i1 false)
  call void @llvm.lifetime.end.p0(i64 4, ptr %9) #5
  ret void
}

; Function Attrs: nounwind uwtable
define internal i32 @test_param_bignum(i32 noundef %0) #0 {
  %2 = alloca i32, align 4
  %3 = alloca i32, align 4
  %4 = alloca [20 x i8], align 16
  %5 = alloca [20 x i8], align 16
  %6 = alloca i64, align 8
  %7 = alloca ptr, align 8
  %8 = alloca ptr, align 8
  %9 = alloca %struct.ossl_param_st, align 8
  %10 = alloca i32, align 4
  %11 = alloca i32, align 4
  store i32 %0, ptr %3, align 4, !tbaa !4
  call void @llvm.lifetime.start.p0(i64 20, ptr %4) #5
  call void @llvm.lifetime.start.p0(i64 20, ptr %5) #5
  call void @llvm.lifetime.start.p0(i64 8, ptr %6) #5
  %12 = load i32, ptr %3, align 4, !tbaa !4
  %13 = sext i32 %12 to i64
  %14 = getelementptr inbounds [14 x %struct.anon], ptr @raw_values, i64 0, i64 %13
  %15 = getelementptr inbounds nuw %struct.anon, ptr %14, i32 0, i32 0
  %16 = load i64, ptr %15, align 16, !tbaa !8
  store i64 %16, ptr %6, align 8, !tbaa !11
  call void @llvm.lifetime.start.p0(i64 8, ptr %7) #5
  store ptr null, ptr %7, align 8, !tbaa !16
  call void @llvm.lifetime.start.p0(i64 8, ptr %8) #5
  store ptr null, ptr %8, align 8, !tbaa !16
  call void @llvm.lifetime.start.p0(i64 40, ptr %9) #5
  call void @llvm.memcpy.p0.p0.i64(ptr align 8 %9, ptr align 8 @__const.test_param_bignum.param, i64 40, i1 false)
  call void @llvm.lifetime.start.p0(i64 4, ptr %10) #5
  store i32 0, ptr %10, align 4, !tbaa !4
  %17 = call i32 @test_param_type_null(ptr noundef %9)
  %18 = call i32 @test_int_eq(ptr noundef @.str.17, i32 noundef 503, ptr noundef @.str.18, ptr noundef @.str.19, i32 noundef %17, i32 noundef 1)
  %19 = icmp ne i32 %18, 0
  br i1 %19, label %21, label %20

20:                                               ; preds = %1
  store i32 0, ptr %2, align 4
  store i32 1, ptr %11, align 4
  br label %79

21:                                               ; preds = %1
  %22 = getelementptr inbounds [20 x i8], ptr %5, i64 0, i64 0
  %23 = getelementptr inbounds nuw %struct.ossl_param_st, ptr %9, i32 0, i32 2
  store ptr %22, ptr %23, align 8, !tbaa !12
  %24 = getelementptr inbounds nuw %struct.ossl_param_st, ptr %9, i32 0, i32 3
  store i64 20, ptr %24, align 8, !tbaa !18
  %25 = load i32, ptr %3, align 4, !tbaa !4
  %26 = sext i32 %25 to i64
  %27 = getelementptr inbounds [14 x %struct.anon], ptr @raw_values, i64 0, i64 %26
  %28 = getelementptr inbounds nuw %struct.anon, ptr %27, i32 0, i32 1
  %29 = getelementptr inbounds [20 x i8], ptr %28, i64 0, i64 0
  %30 = load i64, ptr %6, align 8, !tbaa !11
  %31 = trunc i64 %30 to i32
  %32 = call ptr @BN_lebin2bn(ptr noundef %29, i32 noundef %31, ptr noundef null)
  store ptr %32, ptr %7, align 8, !tbaa !16
  %33 = call i32 @test_ptr(ptr noundef @.str.17, i32 noundef 509, ptr noundef @.str.55, ptr noundef %32)
  %34 = icmp ne i32 %33, 0
  br i1 %34, label %36, label %35

35:                                               ; preds = %21
  br label %75

36:                                               ; preds = %21
  %37 = load ptr, ptr %7, align 8, !tbaa !16
  %38 = call i32 @OSSL_PARAM_set_BN(ptr noundef %9, ptr noundef %37)
  %39 = icmp ne i32 %38, 0
  %40 = zext i1 %39 to i32
  %41 = call i32 @test_true(ptr noundef @.str.17, i32 noundef 512, ptr noundef @.str.56, i32 noundef %40)
  %42 = icmp ne i32 %41, 0
  br i1 %42, label %44, label %43

43:                                               ; preds = %36
  br label %75

44:                                               ; preds = %36
  %45 = getelementptr inbounds [20 x i8], ptr %4, i64 0, i64 0
  %46 = load i64, ptr %6, align 8, !tbaa !11
  %47 = getelementptr inbounds [20 x i8], ptr %5, i64 0, i64 0
  call void @le_copy(ptr noundef %45, i64 noundef %46, ptr noundef %47, i64 noundef 20)
  %48 = load i32, ptr %3, align 4, !tbaa !4
  %49 = sext i32 %48 to i64
  %50 = getelementptr inbounds [14 x %struct.anon], ptr @raw_values, i64 0, i64 %49
  %51 = getelementptr inbounds nuw %struct.anon, ptr %50, i32 0, i32 1
  %52 = getelementptr inbounds [20 x i8], ptr %51, i64 0, i64 0
  %53 = load i64, ptr %6, align 8, !tbaa !11
  %54 = getelementptr inbounds [20 x i8], ptr %4, i64 0, i64 0
  %55 = load i64, ptr %6, align 8, !tbaa !11
  %56 = call i32 @test_mem_eq(ptr noundef @.str.17, i32 noundef 515, ptr noundef @.str.22, ptr noundef @.str.31, ptr noundef %52, i64 noundef %53, ptr noundef %54, i64 noundef %55)
  %57 = icmp ne i32 %56, 0
  br i1 %57, label %59, label %58

58:                                               ; preds = %44
  br label %75

59:                                               ; preds = %44
  %60 = getelementptr inbounds nuw %struct.ossl_param_st, ptr %9, i32 0, i32 4
  %61 = load i64, ptr %60, align 8, !tbaa !19
  %62 = getelementptr inbounds nuw %struct.ossl_param_st, ptr %9, i32 0, i32 3
  store i64 %61, ptr %62, align 8, !tbaa !18
  %63 = call i32 @OSSL_PARAM_get_BN(ptr noundef %9, ptr noundef %8)
  %64 = icmp ne i32 %63, 0
  %65 = zext i1 %64 to i32
  %66 = call i32 @test_true(ptr noundef @.str.17, i32 noundef 518, ptr noundef @.str.57, i32 noundef %65)
  %67 = icmp ne i32 %66, 0
  br i1 %67, label %68, label %73

68:                                               ; preds = %59
  %69 = load ptr, ptr %7, align 8, !tbaa !16
  %70 = load ptr, ptr %8, align 8, !tbaa !16
  %71 = call i32 @test_BN_eq(ptr noundef @.str.17, i32 noundef 519, ptr noundef @.str.58, ptr noundef @.str.59, ptr noundef %69, ptr noundef %70)
  %72 = icmp ne i32 %71, 0
  br i1 %72, label %74, label %73

73:                                               ; preds = %68, %59
  br label %75

74:                                               ; preds = %68
  store i32 1, ptr %10, align 4, !tbaa !4
  br label %75

75:                                               ; preds = %74, %73, %58, %43, %35
  %76 = load ptr, ptr %7, align 8, !tbaa !16
  call void @BN_free(ptr noundef %76)
  %77 = load ptr, ptr %8, align 8, !tbaa !16
  call void @BN_free(ptr noundef %77)
  %78 = load i32, ptr %10, align 4, !tbaa !4
  store i32 %78, ptr %2, align 4
  store i32 1, ptr %11, align 4
  br label %79

79:                                               ; preds = %75, %20
  call void @llvm.lifetime.end.p0(i64 4, ptr %10) #5
  call void @llvm.lifetime.end.p0(i64 40, ptr %9) #5
  call void @llvm.lifetime.end.p0(i64 8, ptr %8) #5
  call void @llvm.lifetime.end.p0(i64 8, ptr %7) #5
  call void @llvm.lifetime.end.p0(i64 8, ptr %6) #5
  call void @llvm.lifetime.end.p0(i64 20, ptr %5) #5
  call void @llvm.lifetime.end.p0(i64 20, ptr %4) #5
  %80 = load i32, ptr %2, align 4
  ret i32 %80
}