; Function Attrs: nounwind uwtable
define internal range(i32 0, 2) i32 @test_param_bignum(i32 noundef %0) #0 {
  %2 = alloca [20 x i8], align 16
  %3 = alloca [20 x i8], align 16
  %4 = alloca ptr, align 8
  %5 = alloca %struct.ossl_param_st, align 8
  call void @llvm.lifetime.start.p0(i64 20, ptr nonnull %2) #5
  call void @llvm.lifetime.start.p0(i64 20, ptr nonnull %3) #5
  %6 = sext i32 %0 to i64
  %7 = getelementptr inbounds [14 x %struct.anon], ptr @raw_values, i64 0, i64 %6
  %8 = load i64, ptr %7, align 16, !tbaa !4
  call void @llvm.lifetime.start.p0(i64 8, ptr nonnull %4) #5
  store ptr null, ptr %4, align 8, !tbaa !16
  call void @llvm.lifetime.start.p0(i64 40, ptr nonnull %5) #5
  call void @llvm.memcpy.p0.p0.i64(ptr noundef nonnull align 8 dereferenceable(40) %5, ptr noundef nonnull align 8 dereferenceable(40) @__const.test_param_bignum.param, i64 40, i1 false)
  %9 = call fastcc i32 @test_param_type_null(ptr noundef %5)
  %10 = call i32 @test_int_eq(ptr noundef nonnull @.str.17, i32 noundef 503, ptr noundef nonnull @.str.18, ptr noundef nonnull @.str.19, i32 noundef %9, i32 noundef 1) #5
  %.not = icmp eq i32 %10, 0
  br i1 %.not, label %37, label %11

11:                                               ; preds = %1
  %12 = getelementptr inbounds nuw i8, ptr %5, i64 16
  store ptr %3, ptr %12, align 8, !tbaa !9
  %13 = getelementptr inbounds nuw i8, ptr %5, i64 24
  store i64 20, ptr %13, align 8, !tbaa !18
  %14 = getelementptr inbounds nuw i8, ptr %7, i64 8
  %15 = trunc i64 %8 to i32
  %16 = call ptr @BN_lebin2bn(ptr noundef nonnull %14, i32 noundef %15, ptr noundef null) #5
  %17 = call i32 @test_ptr(ptr noundef nonnull @.str.17, i32 noundef 509, ptr noundef nonnull @.str.55, ptr noundef %16) #5
  %.not12 = icmp eq i32 %17, 0
  br i1 %.not12, label %35, label %18

18:                                               ; preds = %11
  %19 = call i32 @OSSL_PARAM_set_BN(ptr noundef nonnull %5, ptr noundef %16) #5
  %20 = icmp ne i32 %19, 0
  %21 = zext i1 %20 to i32
  %22 = call i32 @test_true(ptr noundef nonnull @.str.17, i32 noundef 512, ptr noundef nonnull @.str.56, i32 noundef %21) #5
  %.not13 = icmp eq i32 %22, 0
  br i1 %.not13, label %35, label %23

23:                                               ; preds = %18
  call void @llvm.memcpy.p0.p0.i64(ptr nonnull align 16 %2, ptr nonnull readonly align 16 %3, i64 %8, i1 false)
  %24 = call i32 @test_mem_eq(ptr noundef nonnull @.str.17, i32 noundef 515, ptr noundef nonnull @.str.22, ptr noundef nonnull @.str.31, ptr noundef nonnull %14, i64 noundef %8, ptr noundef nonnull %2, i64 noundef %8) #5
  %.not14 = icmp eq i32 %24, 0
  br i1 %.not14, label %35, label %25

25:                                               ; preds = %23
  %26 = getelementptr inbounds nuw i8, ptr %5, i64 32
  %27 = load i64, ptr %26, align 8, !tbaa !19
  store i64 %27, ptr %13, align 8, !tbaa !18
  %28 = call i32 @OSSL_PARAM_get_BN(ptr noundef nonnull %5, ptr noundef nonnull %4) #5
  %29 = icmp ne i32 %28, 0
  %30 = zext i1 %29 to i32
  %31 = call i32 @test_true(ptr noundef nonnull @.str.17, i32 noundef 518, ptr noundef nonnull @.str.57, i32 noundef %30) #5
  %.not15 = icmp eq i32 %31, 0
  br i1 %.not15, label %35, label %32

32:                                               ; preds = %25
  %33 = load ptr, ptr %4, align 8, !tbaa !16
  %34 = call i32 @test_BN_eq(ptr noundef nonnull @.str.17, i32 noundef 519, ptr noundef nonnull @.str.58, ptr noundef nonnull @.str.59, ptr noundef %16, ptr noundef %33) #5
  %.not16 = icmp ne i32 %34, 0
  %spec.select = zext i1 %.not16 to i32
  br label %35

35:                                               ; preds = %32, %25, %23, %18, %11
  %.0 = phi i32 [ 0, %25 ], [ 0, %23 ], [ 0, %18 ], [ 0, %11 ], [ %spec.select, %32 ]
  call void @BN_free(ptr noundef %16) #5
  %36 = load ptr, ptr %4, align 8, !tbaa !16
  call void @BN_free(ptr noundef %36) #5
  br label %37

37:                                               ; preds = %1, %35
  %.011 = phi i32 [ %.0, %35 ], [ 0, %1 ]
  call void @llvm.lifetime.end.p0(i64 40, ptr nonnull %5) #5
  call void @llvm.lifetime.end.p0(i64 8, ptr nonnull %4) #5
  call void @llvm.lifetime.end.p0(i64 20, ptr nonnull %3) #5
  call void @llvm.lifetime.end.p0(i64 20, ptr nonnull %2) #5
  ret i32 %.011
}